; Function Attrs: mustprogress nounwind uwtable
define noundef ptr @_ZN4toku8treenode9child_ptr10get_lockedEv(ptr noundef nonnull align 8 captures(none) dereferenceable(16) %0) local_unnamed_addr #0 align 2 {
  %2 = load ptr, ptr %0, align 8, !tbaa !26
  %.not = icmp eq ptr %2, null
  br i1 %.not, label %13, label %3

3:                                                ; preds = %1
  %4 = tail call i32 @pthread_mutex_lock(ptr noundef nonnull align 8 dereferenceable(202) %2) #17
  %5 = load ptr, ptr %0, align 8, !tbaa !26
  %6 = getelementptr inbounds nuw i8, ptr %5, i64 168
  %7 = load i32, ptr %6, align 8, !tbaa !28
  %8 = getelementptr inbounds nuw i8, ptr %5, i64 184
  %9 = load i32, ptr %8, align 8, !tbaa !29
  %10 = tail call i32 @llvm.umax.i32(i32 %7, i32 %9)
  %11 = add i32 %10, 1
  %12 = getelementptr inbounds nuw i8, ptr %0, i64 8
  store i32 %11, ptr %12, align 8, !tbaa !27
  br label %13

13:                                               ; preds = %3, %1
  %14 = phi ptr [ %5, %3 ], [ null, %1 ]
  ret ptr %14
}